GAS LISTING C:\Users\Milos\AppData\Local\Temp\ccVYu8jf.s 			page 1


   1              		.file	"main.cpp"
   2              		.section	.text$_ZNSt23_Sp_counted_ptr_inplaceINSt6thread5_ImplISt12_Bind_simpleIFPFvvEvEEEESaIS7_E
   3              		.linkonce discard
   4              		.align 2
   5              		.p2align 4,,15
   6              		.globl	__ZNSt23_Sp_counted_ptr_inplaceINSt6thread5_ImplISt12_Bind_simpleIFPFvvEvEEEESaIS7_ELN9__gn
   8              	__ZNSt23_Sp_counted_ptr_inplaceINSt6thread5_ImplISt12_Bind_simpleIFPFvvEvEEEESaIS7_ELN9__gnu_cxx12_
   9 0000 F3C3     		rep ret
  10 0002 90909090 		.section	.text$_ZNSt23_Sp_counted_ptr_inplaceINSt6thread5_ImplISt12_Bind_simpleIFPFvvEvEEEESaIS7_E
  10      90909090 
  10      90909090 
  10      9090
  11              		.linkonce discard
  12              		.align 2
  13              		.p2align 4,,15
  14              		.globl	__ZNSt23_Sp_counted_ptr_inplaceINSt6thread5_ImplISt12_Bind_simpleIFPFvvEvEEEESaIS7_ELN9__gn
  16              	__ZNSt23_Sp_counted_ptr_inplaceINSt6thread5_ImplISt12_Bind_simpleIFPFvvEvEEEESaIS7_ELN9__gnu_cxx12_
  17 0000 89C8     		movl	%ecx, %eax
  18 0002 8D490C   		leal	12(%ecx), %ecx
  19 0005 8B400C   		movl	12(%eax), %eax
  20 0008 FF20     		jmp	*(%eax)
  21 000a 90909090 		.section	.text$_ZNSt6thread5_ImplISt12_Bind_simpleIFPFvvEvEEE6_M_runEv,"x"
  21      9090
  22              		.linkonce discard
  23              		.align 2
  24              		.p2align 4,,15
  25              		.globl	__ZNSt6thread5_ImplISt12_Bind_simpleIFPFvvEvEEE6_M_runEv
  27              	__ZNSt6thread5_ImplISt12_Bind_simpleIFPFvvEvEEE6_M_runEv:
  28 0000 FF610C   		jmp	*12(%ecx)
  29 0003 90909090 		.section	.text$_ZNSt23_Sp_counted_ptr_inplaceINSt6thread5_ImplISt12_Bind_simpleIFPFvvEvEEEESaIS7_E
  29      90909090 
  29      90909090 
  29      90
  30              		.linkonce discard
  31              		.align 2
  32              		.p2align 4,,15
  33              		.globl	__ZNSt23_Sp_counted_ptr_inplaceINSt6thread5_ImplISt12_Bind_simpleIFPFvvEvEEEESaIS7_ELN9__gn
  35              	__ZNSt23_Sp_counted_ptr_inplaceINSt6thread5_ImplISt12_Bind_simpleIFPFvvEvEEEESaIS7_ELN9__gnu_cxx12_
  36 0000 53       		pushl	%ebx
  37 0001 89CB     		movl	%ecx, %ebx
  38 0003 83C30C   		addl	$12, %ebx
  39 0006 83EC18   		subl	$24, %esp
  40 0009 8B4C2420 		movl	32(%esp), %ecx
  41 000d C7042400 		movl	$__ZTISt19_Sp_make_shared_tag, (%esp)
  41      000000
  42 0014 E8000000 		call	__ZNKSt9type_infoeqERKS_
  42      00
  43 0019 83EC04   		subl	$4, %esp
  44 001c 84C0     		testb	%al, %al
  45 001e B8000000 		movl	$0, %eax
  45      00
  46 0023 0F45C3   		cmovne	%ebx, %eax
  47 0026 83C418   		addl	$24, %esp
  48 0029 5B       		popl	%ebx
  49 002a C20400   		ret	$4
  50 002d 909090   		.section	.text$_ZNSt23_Sp_counted_ptr_inplaceINSt6thread5_ImplISt12_Bind_simpleIFPFvvEvEEEESaIS7_E
  51              		.linkonce discard
GAS LISTING C:\Users\Milos\AppData\Local\Temp\ccVYu8jf.s 			page 2


  52              		.align 2
  53              		.p2align 4,,15
  54              		.globl	__ZNSt23_Sp_counted_ptr_inplaceINSt6thread5_ImplISt12_Bind_simpleIFPFvvEvEEEESaIS7_ELN9__gn
  56              	__ZNSt23_Sp_counted_ptr_inplaceINSt6thread5_ImplISt12_Bind_simpleIFPFvvEvEEEESaIS7_ELN9__gnu_cxx12_
  57 0000 83EC1C   		subl	$28, %esp
  58 0003 890C24   		movl	%ecx, (%esp)
  59 0006 E8000000 		call	__ZdlPv
  59      00
  60 000b 83C41C   		addl	$28, %esp
  61 000e C3       		ret
  62 000f 90       		.section	.text$_ZNSt23_Sp_counted_ptr_inplaceINSt6thread5_ImplISt12_Bind_simpleIFPFvvEvEEEESaIS7_E
  63              		.linkonce discard
  64              		.align 2
  65              		.p2align 4,,15
  66              		.globl	__ZNSt23_Sp_counted_ptr_inplaceINSt6thread5_ImplISt12_Bind_simpleIFPFvvEvEEEESaIS7_ELN9__gn
  68              	__ZNSt23_Sp_counted_ptr_inplaceINSt6thread5_ImplISt12_Bind_simpleIFPFvvEvEEEESaIS7_ELN9__gnu_cxx12_
  69 0000 83EC1C   		subl	$28, %esp
  70 0003 890C24   		movl	%ecx, (%esp)
  71 0006 E8000000 		call	__ZdlPv
  71      00
  72 000b 83C41C   		addl	$28, %esp
  73 000e C3       		ret
  74 000f 90       		.text
  75              		.p2align 4,,15
  77              	___tcf_0:
  78 0000 B9300000 		movl	$__ZStL8__ioinit, %ecx
  78      00
  79 0005 E9000000 		jmp	__ZNSt8ios_base4InitD1Ev
  79      00
  80              		.section	.text$_ZNSt16_Sp_counted_baseILN9__gnu_cxx12_Lock_policyE2EE10_M_destroyEv,"x"
  81              		.linkonce discard
  82              		.align 2
  83              		.p2align 4,,15
  84              		.globl	__ZNSt16_Sp_counted_baseILN9__gnu_cxx12_Lock_policyE2EE10_M_destroyEv
  86              	__ZNSt16_Sp_counted_baseILN9__gnu_cxx12_Lock_policyE2EE10_M_destroyEv:
  87 0000 85C9     		testl	%ecx, %ecx
  88 0002 741A     		je	L21
  89 0004 8B01     		movl	(%ecx), %eax
  90 0006 8B4004   		movl	4(%eax), %eax
  91 0009 3D000000 		cmpl	$__ZNSt23_Sp_counted_ptr_inplaceINSt6thread5_ImplISt12_Bind_simpleIFPFvvEvEEEESaIS7_ELN9__gnu
  91      00
  92 000e 7510     		jne	L15
  93 0010 83EC1C   		subl	$28, %esp
  94 0013 890C24   		movl	%ecx, (%esp)
  95 0016 E8000000 		call	__ZdlPv
  95      00
  96 001b 83C41C   		addl	$28, %esp
  97              	L21:
  98 001e F3C3     		rep ret
  99              		.p2align 4,,10
 100              	L15:
 101 0020 FFE0     		jmp	*%eax
 102 0022 90909090 		.section	.text$_ZNSt6thread5_ImplISt12_Bind_simpleIFPFvvEvEEED1Ev,"x"
 102      90909090 
 102      90909090 
 102      9090
 103              		.linkonce discard
GAS LISTING C:\Users\Milos\AppData\Local\Temp\ccVYu8jf.s 			page 3


 104              		.align 2
 105              		.p2align 4,,15
 106              		.globl	__ZNSt6thread5_ImplISt12_Bind_simpleIFPFvvEvEEED1Ev
 108              	__ZNSt6thread5_ImplISt12_Bind_simpleIFPFvvEvEEED1Ev:
 109 0000 53       		pushl	%ebx
 110 0001 83EC08   		subl	$8, %esp
 111 0004 8B5908   		movl	8(%ecx), %ebx
 112 0007 C7010800 		movl	$__ZTVNSt6thread10_Impl_baseE+8, (%ecx)
 112      0000
 113 000d 85DB     		testl	%ebx, %ebx
 114 000f 7407     		je	L23
 115 0011 F0836B04 		lock subl	$1, 4(%ebx)
 115      01
 116 0016 7408     		je	L28
 117              	L23:
 118 0018 83C408   		addl	$8, %esp
 119 001b 5B       		popl	%ebx
 120 001c C3       		ret
 121 001d 8D7600   		.p2align 4,,10
 122              	L28:
 123 0020 8B03     		movl	(%ebx), %eax
 124 0022 89D9     		movl	%ebx, %ecx
 125 0024 FF5008   		call	*8(%eax)
 126 0027 F0836B08 		lock subl	$1, 8(%ebx)
 126      01
 127 002c 75EA     		jne	L23
 128 002e 8B03     		movl	(%ebx), %eax
 129 0030 89D9     		movl	%ebx, %ecx
 130 0032 8B400C   		movl	12(%eax), %eax
 131 0035 83C408   		addl	$8, %esp
 132 0038 5B       		popl	%ebx
 133 0039 FFE0     		jmp	*%eax
 134 003b 90909090 		.section	.text$_ZNSt6thread5_ImplISt12_Bind_simpleIFPFvvEvEEED0Ev,"x"
 134      90
 135              		.linkonce discard
 136              		.align 2
 137              		.p2align 4,,15
 138              		.globl	__ZNSt6thread5_ImplISt12_Bind_simpleIFPFvvEvEEED0Ev
 140              	__ZNSt6thread5_ImplISt12_Bind_simpleIFPFvvEvEEED0Ev:
 141 0000 56       		pushl	%esi
 142 0001 53       		pushl	%ebx
 143 0002 89CE     		movl	%ecx, %esi
 144 0004 83EC14   		subl	$20, %esp
 145 0007 8B5908   		movl	8(%ecx), %ebx
 146 000a C7010800 		movl	$__ZTVNSt6thread10_Impl_baseE+8, (%ecx)
 146      0000
 147 0010 85DB     		testl	%ebx, %ebx
 148 0012 7407     		je	L31
 149 0014 F0836B04 		lock subl	$1, 4(%ebx)
 149      01
 150 0019 7415     		je	L34
 151              	L31:
 152 001b 893424   		movl	%esi, (%esp)
 153 001e E8000000 		call	__ZdlPv
 153      00
 154 0023 83C414   		addl	$20, %esp
 155 0026 5B       		popl	%ebx
GAS LISTING C:\Users\Milos\AppData\Local\Temp\ccVYu8jf.s 			page 4


 156 0027 5E       		popl	%esi
 157 0028 C3       		ret
 158 0029 8DB42600 		.p2align 4,,10
 158      000000
 159              	L34:
 160 0030 8B03     		movl	(%ebx), %eax
 161 0032 89D9     		movl	%ebx, %ecx
 162 0034 FF5008   		call	*8(%eax)
 163 0037 F0836B08 		lock subl	$1, 8(%ebx)
 163      01
 164 003c 75DD     		jne	L31
 165 003e 8B03     		movl	(%ebx), %eax
 166 0040 89D9     		movl	%ebx, %ecx
 167 0042 FF500C   		call	*12(%eax)
 168 0045 EBD4     		jmp	L31
 169 0047 90909090 		.section	.text$printf,"x"
 169      90909090 
 169      90
 170              		.linkonce discard
 171              		.p2align 4,,15
 172              		.globl	_printf
 174              	_printf:
 175 0000 83EC1C   		subl	$28, %esp
 176 0003 8D442424 		leal	36(%esp), %eax
 177 0007 89442404 		movl	%eax, 4(%esp)
 178 000b 8B442420 		movl	32(%esp), %eax
 179 000f 890424   		movl	%eax, (%esp)
 180 0012 E8000000 		call	___mingw_vprintf
 180      00
 181 0017 83C41C   		addl	$28, %esp
 182 001a C3       		ret
 183 001b 90909090 		.section .rdata,"dr"
 183      90
 184              		.align 4
 185              	LC0:
 186 0000 43757272 		.ascii "Current speed multiplier is %.1f. Type in the new value to change it.\12Multiplier: \0"
 186      656E7420 
 186      73706565 
 186      64206D75 
 186      6C746970 
 187 0053 00       		.align 4
 188              	LC2:
 189 0054 54686520 		.ascii "The multiplier must be a number. Please, try again.\12\0"
 189      6D756C74 
 189      69706C69 
 189      6572206D 
 189      75737420 
 190              		.text
 191 000a 8DB60000 		.p2align 4,,15
 191      0000
 192              		.globl	__Z9get_inputv
 194              	__Z9get_inputv:
 195 0010 56       		pushl	%esi
 196 0011 53       		pushl	%ebx
 197 0012 83EC24   		subl	$36, %esp
 198 0015 8B350000 		movl	__imp___iob, %esi
 198      0000
GAS LISTING C:\Users\Milos\AppData\Local\Temp\ccVYu8jf.s 			page 5


 199 001b 8D5C2419 		leal	25(%esp), %ebx
 200 001f EB63     		jmp	L38
 201              		.p2align 4,,10
 202              	L46:
 203 0021 D9050400 		flds	__ZL5speed
 203      0000
 204 0027 C7042400 		movl	$LC0, (%esp)
 204      000000
 205 002e DD5C2404 		fstpl	4(%esp)
 206 0032 E8000000 		call	_printf
 206      00
 207 0037 893424   		movl	%esi, (%esp)
 208 003a E8000000 		call	_fflush
 208      00
 209 003f 89742408 		movl	%esi, 8(%esp)
 210 0043 C7442404 		movl	$3, 4(%esp)
 210      03000000 
 211 004b 891C24   		movl	%ebx, (%esp)
 212 004e E8000000 		call	_fgets
 212      00
 213 0053 803D0000 		cmpb	$0, __ZL14thread_running
 213      000000
 214 005a 7431     		je	L37
 215 005c 8D44241C 		leal	28(%esp), %eax
 216 0060 891C24   		movl	%ebx, (%esp)
 217 0063 89442404 		movl	%eax, 4(%esp)
 218 0067 E8000000 		call	_strtof
 218      00
 219 006c D9EE     		fldz
 220 006e D9C9     		fxch	%st(1)
 221 0070 DBE9     		fucomi	%st(1), %st
 222 0072 DDD9     		fstp	%st(1)
 223 0074 7A08     		jp	L40
 224 0076 7506     		jne	L40
 225 0078 395C241C 		cmpl	%ebx, 28(%esp)
 226 007c 7415     		je	L45
 227              	L40:
 228 007e D91D0400 		fstps	__ZL5speed
 228      0000
 229              	L38:
 230 0084 803D0000 		cmpb	$0, __ZL14thread_running
 230      000000
 231 008b 7594     		jne	L46
 232              	L37:
 233 008d 83C424   		addl	$36, %esp
 234 0090 5B       		popl	%ebx
 235 0091 5E       		popl	%esi
 236 0092 C3       		ret
 237              		.p2align 4,,10
 238              	L45:
 239 0093 DDD8     		fstp	%st(0)
 240 0095 C7042454 		movl	$LC2, (%esp)
 240      000000
 241 009c E8000000 		call	_printf
 241      00
 242 00a1 EBE1     		jmp	L38
 246 00a3 90909090 		.section	.text$_ZNSt6threadD1Ev,"x"
GAS LISTING C:\Users\Milos\AppData\Local\Temp\ccVYu8jf.s 			page 6


 246      90909090 
 246      90909090 
 246      90
 247              		.linkonce discard
 248              		.align 2
 249              		.p2align 4,,15
 250              		.globl	__ZNSt6threadD1Ev
 252              	__ZNSt6threadD1Ev:
 253 0000 56       		pushl	%esi
 254 0001 53       		pushl	%ebx
 255 0002 89CE     		movl	%ecx, %esi
 256 0004 83EC54   		subl	$84, %esp
 257 0007 8D5C241C 		leal	28(%esp), %ebx
 258 000b C7442434 		movl	$___gxx_personality_sj0, 52(%esp)
 258      00000000 
 259 0013 C7442438 		movl	$LLSDA2573, 56(%esp)
 259      00000000 
 260 001b 891C24   		movl	%ebx, (%esp)
 261 001e E8000000 		call	__Unwind_SjLj_Register
 261      00
 262 0023 8B06     		movl	(%esi), %eax
 263 0025 C7442404 		movl	$0, 4(%esp)
 263      00000000 
 264 002d C7442420 		movl	$0, 32(%esp)
 264      00000000 
 265 0035 890424   		movl	%eax, (%esp)
 266 0038 E8000000 		call	_pthread_equal
 266      00
 267 003d 85C0     		testl	%eax, %eax
 268 003f 740E     		je	L50
 269 0041 891C24   		movl	%ebx, (%esp)
 270 0044 E8000000 		call	__Unwind_SjLj_Unregister
 270      00
 271 0049 83C454   		addl	$84, %esp
 272 004c 5B       		popl	%ebx
 273 004d 5E       		popl	%esi
 274 004e C3       		ret
 275              	L50:
 276 004f E8000000 		call	__ZSt9terminatev
 276      00
 277              		.section	.gcc_except_table,"w"
 278              	LLSDA2573:
 279 0000 FF       		.byte	0xff
 280 0001 FF       		.byte	0xff
 281 0002 01       		.byte	0x1
 282 0003 00       		.uleb128 LLSDACSE2573-LLSDACSB2573
 283              	LLSDACSB2573:
 284              	LLSDACSE2573:
 285              		.section	.text$_ZNSt6threadD1Ev,"x"
 286              		.linkonce discard
 287 0054 90909090 		.section	.text$_ZNSt16_Sp_counted_baseILN9__gnu_cxx12_Lock_policyE2EE10_M_releaseEv,"x"
 287      90909090 
 287      90909090 
 288              		.linkonce discard
 289              		.align 2
 290              		.p2align 4,,15
 291              		.globl	__ZNSt16_Sp_counted_baseILN9__gnu_cxx12_Lock_policyE2EE10_M_releaseEv
GAS LISTING C:\Users\Milos\AppData\Local\Temp\ccVYu8jf.s 			page 7


 293              	__ZNSt16_Sp_counted_baseILN9__gnu_cxx12_Lock_policyE2EE10_M_releaseEv:
 294 0000 F0836904 		lock subl	$1, 4(%ecx)
 294      01
 295 0005 7409     		je	L58
 296 0007 C3       		ret
 297 0008 908DB426 		.p2align 4,,10
 297      00000000 
 298              	L58:
 299 0010 53       		pushl	%ebx
 300 0011 89CB     		movl	%ecx, %ebx
 301 0013 83EC08   		subl	$8, %esp
 302 0016 8B01     		movl	(%ecx), %eax
 303 0018 FF5008   		call	*8(%eax)
 304 001b F0836B08 		lock subl	$1, 8(%ebx)
 304      01
 305 0020 740E     		je	L59
 306 0022 83C408   		addl	$8, %esp
 307 0025 5B       		popl	%ebx
 308 0026 C3       		ret
 309 0027 89F68DBC 		.p2align 4,,10
 309      27000000 
 309      00
 310              	L59:
 311 0030 8B03     		movl	(%ebx), %eax
 312 0032 89D9     		movl	%ebx, %ecx
 313 0034 8B400C   		movl	12(%eax), %eax
 314 0037 83C408   		addl	$8, %esp
 315 003a 5B       		popl	%ebx
 316 003b FFE0     		jmp	*%eax
 317 003d 909090   		.section	.text$_ZNSt6threadC1IRFvvEJEEEOT_DpOT0_,"x"
 318              		.linkonce discard
 319              		.align 2
 320              		.p2align 4,,15
 321              		.globl	__ZNSt6threadC1IRFvvEJEEEOT_DpOT0_
 323              	__ZNSt6threadC1IRFvvEJEEEOT_DpOT0_:
 324 0000 55       		pushl	%ebp
 325 0001 89E5     		movl	%esp, %ebp
 326 0003 83EC68   		subl	$104, %esp
 327 0006 8D55F8   		leal	-8(%ebp), %edx
 328 0009 894DB0   		movl	%ecx, -80(%ebp)
 329 000c 8965DC   		movl	%esp, -36(%ebp)
 330 000f C745CC00 		movl	$___gxx_personality_sj0, -52(%ebp)
 330      000000
 331 0016 C745D004 		movl	$LLSDA2677, -48(%ebp)
 331      000000
 332 001d 8955D4   		movl	%edx, -44(%ebp)
 333 0020 8D55B4   		leal	-76(%ebp), %edx
 334 0023 C745D80C 		movl	$L68, -40(%ebp)
 334      010000
 335 002a 891424   		movl	%edx, (%esp)
 336 002d E8000000 		call	__Unwind_SjLj_Register
 336      00
 337 0032 8B45B0   		movl	-80(%ebp), %eax
 338 0035 C7000000 		movl	$0, (%eax)
 338      0000
 339 003b C704241C 		movl	$28, (%esp)
 339      000000
GAS LISTING C:\Users\Milos\AppData\Local\Temp\ccVYu8jf.s 			page 8


 340 0042 C745B8FF 		movl	$-1, -72(%ebp)
 340      FFFFFF
 341 0049 E8000000 		call	__Znwj
 341      00
 342 004e 89C2     		movl	%eax, %edx
 343 0050 C7400401 		movl	$1, 4(%eax)
 343      000000
 344 0057 C7400801 		movl	$1, 8(%eax)
 344      000000
 345 005e C7000800 		movl	$__ZTVSt23_Sp_counted_ptr_inplaceINSt6thread5_ImplISt12_Bind_simpleIFPFvvEvEEEESaIS7_ELN9__gn
 345      0000
 346 0064 C7401000 		movl	$0, 16(%eax)
 346      000000
 347 006b B9000000 		movl	$__ZTISt19_Sp_make_shared_tag, %ecx
 347      00
 348 0070 C7401400 		movl	$0, 20(%eax)
 348      000000
 349 0077 C7400C08 		movl	$__ZTVNSt6thread5_ImplISt12_Bind_simpleIFPFvvEvEEEE+8, 12(%eax)
 349      000000
 350 007e 8B4508   		movl	8(%ebp), %eax
 351 0081 8955AC   		movl	%edx, -84(%ebp)
 352 0084 894218   		movl	%eax, 24(%edx)
 353 0087 C7042400 		movl	$__ZTISt19_Sp_make_shared_tag, (%esp)
 353      000000
 354 008e E8000000 		call	__ZNKSt9type_infoeqERKS_
 354      00
 355 0093 8B4DAC   		movl	-84(%ebp), %ecx
 356 0096 83EC04   		subl	$4, %esp
 357 0099 89CA     		movl	%ecx, %edx
 358 009b 894DF4   		movl	%ecx, -12(%ebp)
 359 009e 83C20C   		addl	$12, %edx
 360 00a1 84C0     		testb	%al, %al
 361 00a3 B8000000 		movl	$0, %eax
 361      00
 362 00a8 0F45C2   		cmovne	%edx, %eax
 363 00ab 8945F0   		movl	%eax, -16(%ebp)
 364 00ae 8D45F0   		leal	-16(%ebp), %eax
 365 00b1 890424   		movl	%eax, (%esp)
 366 00b4 8B4DB0   		movl	-80(%ebp), %ecx
 367 00b7 C745B801 		movl	$1, -72(%ebp)
 367      000000
 368 00be E8000000 		call	__ZNSt6thread15_M_start_threadESt10shared_ptrINS_10_Impl_baseEE
 368      00
 369 00c3 8B45F4   		movl	-12(%ebp), %eax
 370 00c6 83EC04   		subl	$4, %esp
 371 00c9 85C0     		testl	%eax, %eax
 372 00cb 8945B0   		movl	%eax, -80(%ebp)
 373 00ce 7407     		je	L60
 374 00d0 F0836804 		lock subl	$1, 4(%eax)
 374      01
 375 00d5 7419     		je	L74
 376              	L60:
 377 00d7 8D45B4   		leal	-76(%ebp), %eax
 378 00da 890424   		movl	%eax, (%esp)
 379 00dd E8000000 		call	__Unwind_SjLj_Unregister
 379      00
 380 00e2 C9       		leave
GAS LISTING C:\Users\Milos\AppData\Local\Temp\ccVYu8jf.s 			page 9


 381 00e3 C20400   		ret	$4
 382 00e6 8D76008D 		.p2align 4,,10
 382      BC270000 
 382      0000
 383              	L74:
 384 00f0 8B4DB0   		movl	-80(%ebp), %ecx
 385 00f3 8B01     		movl	(%ecx), %eax
 386 00f5 FF5008   		call	*8(%eax)
 387 00f8 8B4DB0   		movl	-80(%ebp), %ecx
 388 00fb F0836908 		lock subl	$1, 8(%ecx)
 388      01
 389 0100 75D5     		jne	L60
 390 0102 8B4DB0   		movl	-80(%ebp), %ecx
 391 0105 8B01     		movl	(%ecx), %eax
 392 0107 FF500C   		call	*12(%eax)
 393 010a EBCB     		jmp	L60
 394              	L68:
 395 010c 83C508   		addl	$8, %ebp
 396 010f 8B4DF4   		movl	-12(%ebp), %ecx
 397 0112 8B45BC   		movl	-68(%ebp), %eax
 398 0115 85C9     		testl	%ecx, %ecx
 399 0117 8945B0   		movl	%eax, -80(%ebp)
 400 011a 7405     		je	L66
 401 011c E8000000 		call	__ZNSt16_Sp_counted_baseILN9__gnu_cxx12_Lock_policyE2EE10_M_releaseEv
 401      00
 402              	L66:
 403 0121 8B45B0   		movl	-80(%ebp), %eax
 404 0124 890424   		movl	%eax, (%esp)
 405 0127 C745B8FF 		movl	$-1, -72(%ebp)
 405      FFFFFF
 406 012e E8000000 		call	__Unwind_SjLj_Resume
 406      00
 407              		.section	.gcc_except_table,"w"
 408              	LLSDA2677:
 409 0004 FF       		.byte	0xff
 410 0005 FF       		.byte	0xff
 411 0006 01       		.byte	0x1
 412 0007 02       		.uleb128 LLSDACSE2677-LLSDACSB2677
 413              	LLSDACSB2677:
 414 0008 00       		.uleb128 0
 415 0009 00       		.uleb128 0
 416              	LLSDACSE2677:
 417              		.section	.text$_ZNSt6threadC1IRFvvEJEEEOT_DpOT0_,"x"
 418              		.linkonce discard
 419              		.weak	__ZNSt6threadC1IRFvvEIEEEOT_DpOT0_
 421              		.set	__ZNSt6threadC1IRFvvEIEEEOT_DpOT0_,__ZNSt6threadC1IRFvvEJEEEOT_DpOT0_
 423              		.section .rdata,"dr"
 424 0089 53656C65 	LC4:
 424      63742061 
 424      2067616D 
 424      65202873 
 424      612C2076 
 425 00a2 0000     		.ascii "Select a game (sa, vc): \0"
 426              		.align 4
 427 00a4 4572726F 	LC5:
 427      722C2063 
 427      6F756C64 
GAS LISTING C:\Users\Milos\AppData\Local\Temp\ccVYu8jf.s 			page 10


 427      206E6F74 
 427      20726563 
 428              		.ascii "Error, could not recognize %s. Please try again.\12\0"
 429 00d6 53656C65 	LC6:
 429      63746564 
 429      2067616D 
 429      653A2025 
 429      730A00
 430              		.ascii "Selected game: %s\12\0"
 431 00e9 496E6974 	LC7:
 431      69616C69 
 431      7A696E67 
 431      2E2E2E0A 
 431      00
 432 00fa 0000     		.ascii "Initializing...\12\0"
 433              		.align 4
 434 00fc 436F756C 	LC8:
 434      64206E6F 
 434      7420696E 
 434      6974616C 
 434      697A6520 
 435              		.ascii "Could not initalize the program, make sure %s is running.\12\0"
 436 0137 50726573 	LC9:
 436      7320454E 
 436      54455220 
 436      746F2072 
 436      65747279 
 437              		.ascii "Press ENTER to retry...\12\0"
 438              		.align 4
 439 0150 436F756C 	LC10:
 439      646E2774 
 439      2066696E 
 439      64207468 
 439      65202573 
 440 0172 0000     		.ascii "Couldn't find the %s process id.\12\0"
 441              		.align 4
 442 0174 436F756C 	LC11:
 442      646E2774 
 442      20616363 
 442      65737320 
 442      25732070 
 443              		.ascii "Couldn't access %s process memory.\12\0"
 444 0198 57696E64 	LC12:
 444      6F773A20 
 444      00
 445              		.ascii "Window: \0"
 446 01a1 50726F63 	LC13:
 446      65737320 
 446      49443A20 
 446      00
 447              		.ascii "Process ID: \0"
 448 01ae 50726F63 	LC14:
 448      65737320 
 448      68616E64 
 448      6C653A20 
 448      00
 449              		.ascii "Process handle: \0"
GAS LISTING C:\Users\Milos\AppData\Local\Temp\ccVYu8jf.s 			page 11


 450 01bf 496E6974 	LC15:
 450      69616C69 
 450      7A617469 
 450      6F6E2063 
 450      6F6D706C 
 451 01d9 000000   		.ascii "Initialization complete.\12\0"
 452              		.align 4
 453 01dc 54797065 	LC16:
 453      20696E20 
 453      74686520 
 453      73706565 
 453      64206D75 
 454              		.ascii "Type in the speed multiplier. Default is 1.0.\12Multiplier: \0"
 455 0217 0A257320 	LC17:
 455      68617320 
 455      6265656E 
 455      20636C6F 
 455      7365642E 
 456 022d 000000   		.ascii "\12%s has been closed.\12\0"
 457              		.align 4
 458 0230 54686520 	LC18:
 458      6D756C74 
 458      69706C69 
 458      6572206D 
 458      75737420 
 459 0271 000000   		.ascii "The multiplier must be a number. Please, try again.\12Multiplier: \0"
 460              		.align 4
 461 0274 53706565 	LC19:
 461      64206D75 
 461      6C746970 
 461      6C696572 
 461      20736574 
 462              		.ascii "Speed multiplier set to %.1f.\12\0"
 463 0293 53746172 	LC20:
 463      74696E67 
 463      20746865 
 463      206D6169 
 463      6E206C6F 
 464              		.ascii "Starting the main loop.\12\0"
 465              		.align 4
 466 02ac 0A416E20 	LC21:
 466      756E6578 
 466      70656374 
 466      65642065 
 466      72726F72 
 467              		.ascii "\12An unexpected error has occured.\12\0"
 468 02cf 50726573 	LC22:
 468      7320454E 
 468      54455220 
 468      746F2065 
 468      7869742E 
 469 02e7 00       		.ascii "Press ENTER to exit...\12\0"
 470              		.section	.text.startup,"x"
 471              		.p2align 4,,15
 472              		.globl	_main
 474 0000 8D4C2404 	_main:
 475 0004 83E4F0   		leal	4(%esp), %ecx
GAS LISTING C:\Users\Milos\AppData\Local\Temp\ccVYu8jf.s 			page 12


 476 0007 FF71FC   		andl	$-16, %esp
 477 000a 55       		pushl	-4(%ecx)
 478 000b 89E5     		pushl	%ebp
 479 000d 51       		movl	%esp, %ebp
 480 000e 8D45F8   		pushl	%ecx
 481 0011 83EC74   		leal	-8(%ebp), %eax
 482 0014 C745CC00 		subl	$116, %esp
 482      000000
 483 001b C745D00A 		movl	$___gxx_personality_sj0, -52(%ebp)
 483      000000
 484 0022 8945D4   		movl	$LLSDA2608, -48(%ebp)
 485 0025 8D45B4   		movl	%eax, -44(%ebp)
 486 0028 C745D85B 		leal	-76(%ebp), %eax
 486      060000
 487 002f 8965DC   		movl	$L106, -40(%ebp)
 488 0032 890424   		movl	%esp, -36(%ebp)
 489 0035 E8000000 		movl	%eax, (%esp)
 489      00
 490 003a E8000000 		call	__Unwind_SjLj_Register
 490      00
 491 003f 90       		call	___main
 492              		.p2align 4,,10
 493 0040 A1040000 	L85:
 493      00
 494 0045 85C0     		movl	__ZL4init, %eax
 495 0047 0F855F01 		testl	%eax, %eax
 495      0000
 496 004d C7042489 		jne	L76
 496      000000
 497 0054 E8000000 		movl	$LC4, (%esp)
 497      00
 498 0059 A1000000 		call	_printf
 498      00
 499 005e 890424   		movl	__imp___iob, %eax
 500 0061 E8000000 		movl	%eax, (%esp)
 500      00
 501 0066 A1000000 		call	_fflush
 501      00
 502 006b C7442404 		movl	__imp___iob, %eax
 502      03000000 
 503 0073 89442408 		movl	$3, 4(%esp)
 504 0077 8D45E9   		movl	%eax, 8(%esp)
 505 007a 890424   		leal	-23(%ebp), %eax
 506 007d E8000000 		movl	%eax, (%esp)
 506      00
 507 0082 0FB645E9 		call	_fgets
 508 0086 0FB655EA 		movzbl	-23(%ebp), %eax
 509 008a 83E0DF   		movzbl	-22(%ebp), %edx
 510 008d 3C53     		andl	$-33, %eax
 511 008f 750E     		cmpb	$83, %al
 512 0091 89D1     		jne	L80
 513 0093 83E1DF   		movl	%edx, %ecx
 514 0096 80F941   		andl	$-33, %ecx
 515 0099 0F84C100 		cmpb	$65, %cl
 515      0000
 516              		je	L113
 517 009f 3C56     	L80:
GAS LISTING C:\Users\Milos\AppData\Local\Temp\ccVYu8jf.s 			page 13


 518 00a1 8B0D0400 		cmpb	$86, %al
 518      0000
 519 00a7 7508     		movl	__ZL4init, %ecx
 520 00a9 83E2DF   		jne	L79
 521 00ac 80FA43   		andl	$-33, %edx
 522 00af 7464     		cmpb	$67, %dl
 523              		je	L114
 524 00b1 85C9     	L79:
 525 00b3 751E     		testl	%ecx, %ecx
 526 00b5 EB49     		jne	L84
 527 00b7 89F68DBC 		jmp	L115
 527      27000000 
 527      00
 528              		.p2align 4,,10
 529 00c0 8B01     	L116:
 530 00c2 8D5001   		movl	(%ecx), %eax
 531 00c5 8911     		leal	1(%eax), %edx
 532 00c7 0FB600   		movl	%edx, (%ecx)
 533              		movzbl	(%eax), %eax
 534 00ca 83F80A   	L83:
 535 00cd 0F846DFF 		cmpl	$10, %eax
 535      FFFF
 536              		je	L85
 537 00d3 A1000000 	L84:
 537      00
 538 00d8 8B0D0000 		movl	__imp___iob, %eax
 538      0000
 539 00de 8B4004   		movl	__imp___iob, %ecx
 540 00e1 8945B0   		movl	4(%eax), %eax
 541 00e4 83E801   		movl	%eax, -80(%ebp)
 542 00e7 85C0     		subl	$1, %eax
 543 00e9 894104   		testl	%eax, %eax
 544 00ec 79D2     		movl	%eax, 4(%ecx)
 545 00ee A1000000 		jns	L116
 545      00
 546 00f3 890424   		movl	__imp___iob, %eax
 547 00f6 E8000000 		movl	%eax, (%esp)
 547      00
 548 00fb EBCD     		call	__filbuf
 549 00fd 8D7600   		jmp	L83
 550              		.p2align 4,,10
 551 0100 8D45E9   	L115:
 552 0103 C70424A4 		leal	-23(%ebp), %eax
 552      000000
 553 010a 89442404 		movl	$LC5, (%esp)
 554 010e E8000000 		movl	%eax, 4(%esp)
 554      00
 555 0113 EBBE     		call	_printf
 556              		jmp	L84
 557              		.p2align 4,,10
 558 0115 B8747900 	L114:
 558      00
 559 011a 83C101   		movl	$31092, %eax
 560 011d C7051C00 		addl	$1, %ecx
 560      00004754 
 560      413A
 561 0127 C7052000 		movl	$977359943, __ZL8WIN_NAME
GAS LISTING C:\Users\Milos\AppData\Local\Temp\ccVYu8jf.s 			page 14


 561      00002056 
 561      6963
 562 0131 C7052400 		movl	$1667847712, __ZL8WIN_NAME+4
 562      00006520 
 562      4369
 563 013b 66A32800 		movl	$1766006885, __ZL8WIN_NAME+8
 563      0000
 564 0141 C6052A00 		movw	%ax, __ZL8WIN_NAME+12
 564      000000
 565 0148 C7051800 		movb	$0, __ZL8WIN_NAME+14
 565      000064F2 
 565      9700
 566 0152 890D0400 		movl	$9957988, __ZL7ADDRESS
 566      0000
 567 0158 E954FFFF 		movl	%ecx, __ZL4init
 567      FF
 568 015d 8D7600   		jmp	L79
 569              		.p2align 4,,10
 570 0160 A1040000 	L113:
 570      00
 571 0165 C7051C00 		movl	__ZL4init, %eax
 571      00004754 
 571      413A
 572 016f C7052000 		movl	$977359943, __ZL8WIN_NAME
 572      00002053 
 572      616E
 573 0179 C7052400 		movl	$1851872032, __ZL8WIN_NAME+4
 573      00002041 
 573      6E64
 574 0183 C7052800 		movl	$1684947232, __ZL8WIN_NAME+8
 574      00007265 
 574      6173
 575 018d C6052C00 		movl	$1935762802, __ZL8WIN_NAME+12
 575      000000
 576 0194 8D4801   		movb	$0, __ZL8WIN_NAME+16
 577 0197 C7051800 		leal	1(%eax), %ecx
 577      000064CB 
 577      B700
 578 01a1 890D0400 		movl	$12045156, __ZL7ADDRESS
 578      0000
 579 01a7 E905FFFF 		movl	%ecx, __ZL4init
 579      FF
 580              		jmp	L79
 581 01ac C7442404 	L76:
 581      1C000000 
 582 01b4 C70424D6 		movl	$__ZL8WIN_NAME, 4(%esp)
 582      000000
 583 01bb E8000000 		movl	$LC6, (%esp)
 583      00
 584 01c0 C70424E9 		call	_printf
 584      000000
 585 01c7 E8000000 		movl	$LC7, (%esp)
 585      00
 586 01cc A1040000 		call	_printf
 586      00
 587 01d1 EB38     		movl	__ZL4init, %eax
 588              		jmp	L86
GAS LISTING C:\Users\Milos\AppData\Local\Temp\ccVYu8jf.s 			page 15


 589              		.p2align 4,,10
 590 01d3 C7442404 	L117:
 590      1C000000 
 591 01db C7042400 		movl	$__ZL8WIN_NAME, 4(%esp)
 591      000000
 592 01e2 C745B8FF 		movl	$0, (%esp)
 592      FFFFFF
 593 01e9 E8000000 		movl	$-1, -72(%ebp)
 593      00
 594 01ee 83EC08   		call	_FindWindowA@8
 595 01f1 85C0     		subl	$8, %esp
 596 01f3 A3140000 		testl	%eax, %eax
 596      00
 597 01f8 0F847603 		movl	%eax, __ZL4hwnd
 597      0000
 598 01fe A1040000 		je	L88
 598      00
 599 0203 83C001   		movl	__ZL4init, %eax
 600 0206 A3040000 		addl	$1, %eax
 600      00
 601              		movl	%eax, __ZL4init
 602 020b 83F801   	L86:
 603 020e 74C3     		cmpl	$1, %eax
 604 0210 A1140000 		je	L117
 604      00
 605 0215 C7442404 		movl	__ZL4hwnd, %eax
 605      10000000 
 606 021d 890424   		movl	$__ZL3pid, 4(%esp)
 607 0220 C745B8FF 		movl	%eax, (%esp)
 607      FFFFFF
 608 0227 E8000000 		movl	$-1, -72(%ebp)
 608      00
 609 022c A1100000 		call	_GetWindowThreadProcessId@8
 609      00
 610 0231 83EC08   		movl	__ZL3pid, %eax
 611 0234 85C0     		subl	$8, %esp
 612 0236 0F847303 		testl	%eax, %eax
 612      0000
 613 023c 89442408 		je	L118
 614 0240 C7442404 		movl	%eax, 8(%esp)
 614      00000000 
 615 0248 C7042438 		movl	$0, 4(%esp)
 615      000000
 616 024f C745B8FF 		movl	$56, (%esp)
 616      FFFFFF
 617 0256 E8000000 		movl	$-1, -72(%ebp)
 617      00
 618 025b 83EC0C   		call	_OpenProcess@12
 619 025e 85C0     		subl	$12, %esp
 620 0260 A30C0000 		testl	%eax, %eax
 620      00
 621 0265 0F84D703 		movl	%eax, __ZL7pHandle
 621      0000
 622 026b A1140000 		je	L119
 622      00
 623 0270 8945B0   		movl	__ZL4hwnd, %eax
 624 0273 C7442408 		movl	%eax, -80(%ebp)
GAS LISTING C:\Users\Milos\AppData\Local\Temp\ccVYu8jf.s 			page 16


 624      08000000 
 625 027b C7442404 		movl	$8, 8(%esp)
 625      98010000 
 626 0283 C7042400 		movl	$LC12, 4(%esp)
 626      000000
 627 028a C745B8FF 		movl	$__ZSt4cout, (%esp)
 627      FFFFFF
 628 0291 E8000000 		movl	$-1, -72(%ebp)
 628      00
 629 0296 8B45B0   		call	__ZSt16__ostream_insertIcSt11char_traitsIcEERSt13basic_ostreamIT_T0_ES6_PKS3_i
 630 0299 B9000000 		movl	-80(%ebp), %eax
 630      00
 631 029e 890424   		movl	$__ZSt4cout, %ecx
 632 02a1 E8000000 		movl	%eax, (%esp)
 632      00
 633 02a6 52       		call	__ZNSo9_M_insertIPKvEERSoT_
 634 02a7 890424   		pushl	%edx
 635 02aa E8000000 		movl	%eax, (%esp)
 635      00
 636 02af A1100000 		call	__ZSt4endlIcSt11char_traitsIcEERSt13basic_ostreamIT_T0_ES6_
 636      00
 637 02b4 8945B0   		movl	__ZL3pid, %eax
 638 02b7 C7442408 		movl	%eax, -80(%ebp)
 638      0C000000 
 639 02bf C7442404 		movl	$12, 8(%esp)
 639      A1010000 
 640 02c7 C7042400 		movl	$LC13, 4(%esp)
 640      000000
 641 02ce E8000000 		movl	$__ZSt4cout, (%esp)
 641      00
 642 02d3 8B45B0   		call	__ZSt16__ostream_insertIcSt11char_traitsIcEERSt13basic_ostreamIT_T0_ES6_PKS3_i
 643 02d6 B9000000 		movl	-80(%ebp), %eax
 643      00
 644 02db 890424   		movl	$__ZSt4cout, %ecx
 645 02de E8000000 		movl	%eax, (%esp)
 645      00
 646 02e3 51       		call	__ZNSo9_M_insertImEERSoT_
 647 02e4 890424   		pushl	%ecx
 648 02e7 E8000000 		movl	%eax, (%esp)
 648      00
 649 02ec A10C0000 		call	__ZSt4endlIcSt11char_traitsIcEERSt13basic_ostreamIT_T0_ES6_
 649      00
 650 02f1 8945B0   		movl	__ZL7pHandle, %eax
 651 02f4 C7442408 		movl	%eax, -80(%ebp)
 651      10000000 
 652 02fc C7442404 		movl	$16, 8(%esp)
 652      AE010000 
 653 0304 C7042400 		movl	$LC14, 4(%esp)
 653      000000
 654 030b E8000000 		movl	$__ZSt4cout, (%esp)
 654      00
 655 0310 8B45B0   		call	__ZSt16__ostream_insertIcSt11char_traitsIcEERSt13basic_ostreamIT_T0_ES6_PKS3_i
 656 0313 B9000000 		movl	-80(%ebp), %eax
 656      00
 657 0318 890424   		movl	$__ZSt4cout, %ecx
 658 031b E8000000 		movl	%eax, (%esp)
 658      00
GAS LISTING C:\Users\Milos\AppData\Local\Temp\ccVYu8jf.s 			page 17


 659 0320 52       		call	__ZNSo9_M_insertIPKvEERSoT_
 660 0321 890424   		pushl	%edx
 661 0324 E8000000 		movl	%eax, (%esp)
 661      00
 662 0329 C70424BF 		call	__ZSt4endlIcSt11char_traitsIcEERSt13basic_ostreamIT_T0_ES6_
 662      010000
 663 0330 E8000000 		movl	$LC15, (%esp)
 663      00
 664 0335 C70424DC 		call	_printf
 664      010000
 665 033c E8000000 		movl	$LC16, (%esp)
 665      00
 666 0341 A1040000 		call	_printf
 666      00
 667 0346 E99A0000 		movl	__ZL4init, %eax
 667      00
 668 034b 908D7426 		jmp	L93
 668      00
 669              		.p2align 4,,10
 670 0350 A1000000 	L122:
 670      00
 671 0355 890424   		movl	__imp___iob, %eax
 672 0358 E8000000 		movl	%eax, (%esp)
 672      00
 673 035d A1000000 		call	_fflush
 673      00
 674 0362 C7442404 		movl	__imp___iob, %eax
 674      03000000 
 675 036a 89442408 		movl	$3, 4(%esp)
 676 036e 8D45E9   		movl	%eax, 8(%esp)
 677 0371 890424   		leal	-23(%ebp), %eax
 678 0374 E8000000 		movl	%eax, (%esp)
 678      00
 679 0379 A10C0000 		call	_fgets
 679      00
 680 037e C7442404 		movl	__ZL7pHandle, %eax
 680      08000000 
 681 0386 890424   		movl	$__ZL8exitCode, 4(%esp)
 682 0389 C745B8FF 		movl	%eax, (%esp)
 682      FFFFFF
 683 0390 E8000000 		movl	$-1, -72(%ebp)
 683      00
 684 0395 83EC08   		call	_GetExitCodeProcess@8
 685 0398 813D0800 		subl	$8, %esp
 685      00000301 
 685      0000
 686 03a2 0F851D02 		cmpl	$259, __ZL8exitCode
 686      0000
 687 03a8 8D45EC   		jne	L120
 688 03ab 89442404 		leal	-20(%ebp), %eax
 689 03af 8D45E9   		movl	%eax, 4(%esp)
 690 03b2 890424   		leal	-23(%ebp), %eax
 691 03b5 E8000000 		movl	%eax, (%esp)
 691      00
 692 03ba D9EE     		call	_strtof
 693 03bc D9C9     		fldz
 694 03be DBE9     		fxch	%st(1)
GAS LISTING C:\Users\Milos\AppData\Local\Temp\ccVYu8jf.s 			page 18


 695 03c0 DDD9     		fucomi	%st(1), %st
 696 03c2 7A0E     		fstp	%st(1)
 697 03c4 750C     		jp	L96
 698 03c6 8D45E9   		jne	L96
 699 03c9 3945EC   		leal	-23(%ebp), %eax
 700 03cc 0F841A02 		cmpl	%eax, -20(%ebp)
 700      0000
 701              		je	L121
 702 03d2 A1040000 	L96:
 702      00
 703 03d7 D91D0400 		movl	__ZL4init, %eax
 703      0000
 704 03dd 83C001   		fstps	__ZL5speed
 705 03e0 A3040000 		addl	$1, %eax
 705      00
 706              		movl	%eax, __ZL4init
 707 03e5 83F802   	L93:
 708 03e8 0F8462FF 		cmpl	$2, %eax
 708      FFFF
 709 03ee D9050400 		je	L122
 709      0000
 710 03f4 C7042474 		flds	__ZL5speed
 710      020000
 711 03fb DD5C2404 		movl	$LC19, (%esp)
 712 03ff E8000000 		fstpl	4(%esp)
 712      00
 713 0404 C7042493 		call	_printf
 713      020000
 714 040b E8000000 		movl	$LC20, (%esp)
 714      00
 715 0410 8D4DF4   		call	_printf
 716 0413 C745F000 		leal	-12(%ebp), %ecx
 716      000000
 717 041a C7050000 		movl	$0x00000000, -16(%ebp)
 717      00000100 
 717      0000
 718 0424 C7042410 		movl	$1, __ZL7running
 718      000000
 719 042b C745B8FF 		movl	$__Z9get_inputv, (%esp)
 719      FFFFFF
 720 0432 E8000000 		movl	$-1, -72(%ebp)
 720      00
 721 0437 E9DA0000 		call	__ZNSt6threadC1IRFvvEJEEEOT_DpOT0_
 721      00
 722 043c 8D742600 		jmp	L112
 723              		.p2align 4,,10
 724 0440 A10C0000 	L125:
 724      00
 725 0445 C7442404 		movl	__ZL7pHandle, %eax
 725      08000000 
 726 044d 890424   		movl	$__ZL8exitCode, 4(%esp)
 727 0450 C745B801 		movl	%eax, (%esp)
 727      000000
 728 0457 E8000000 		movl	$1, -72(%ebp)
 728      00
 729 045c 83EC08   		call	_GetExitCodeProcess@8
 730 045f 813D0800 		subl	$8, %esp
GAS LISTING C:\Users\Milos\AppData\Local\Temp\ccVYu8jf.s 			page 19


 730      00000301 
 730      0000
 731 0469 0F859501 		cmpl	$259, __ZL8exitCode
 731      0000
 732 046f C745B801 		jne	L123
 732      000000
 733 0476 E8000000 		movl	$1, -72(%ebp)
 733      00
 734 047b 85C0     		call	_GetLastError@0
 735 047d 0F85A401 		testl	%eax, %eax
 735      0000
 736 0483 8D45F0   		jne	L124
 737 0486 C7442410 		leal	-16(%ebp), %eax
 737      00000000 
 738 048e C744240C 		movl	$0, 16(%esp)
 738      04000000 
 739 0496 89442408 		movl	$4, 12(%esp)
 740 049a A1180000 		movl	%eax, 8(%esp)
 740      00
 741 049f 89442404 		movl	__ZL7ADDRESS, %eax
 742 04a3 A10C0000 		movl	%eax, 4(%esp)
 742      00
 743 04a8 890424   		movl	__ZL7pHandle, %eax
 744 04ab C745B801 		movl	%eax, (%esp)
 744      000000
 745 04b2 E8000000 		movl	$1, -72(%ebp)
 745      00
 746 04b7 D9050400 		call	_ReadProcessMemory@20
 746      0000
 747 04bd 83EC14   		flds	__ZL5speed
 748 04c0 D945F0   		subl	$20, %esp
 749 04c3 DFE9     		flds	-16(%ebp)
 750 04c5 DDD8     		fucomip	%st(1), %st
 751 04c7 7A02     		fstp	%st(0)
 752 04c9 7438     		jp	L102
 753              		je	L104
 754 04cb A1180000 	L102:
 754      00
 755 04d0 C7442410 		movl	__ZL7ADDRESS, %eax
 755      00000000 
 756 04d8 C744240C 		movl	$0, 16(%esp)
 756      04000000 
 757 04e0 C7442408 		movl	$4, 12(%esp)
 757      04000000 
 758 04e8 89442404 		movl	$__ZL5speed, 8(%esp)
 759 04ec A10C0000 		movl	%eax, 4(%esp)
 759      00
 760 04f1 890424   		movl	__ZL7pHandle, %eax
 761 04f4 C745B801 		movl	%eax, (%esp)
 761      000000
 762 04fb E8000000 		movl	$1, -72(%ebp)
 762      00
 763 0500 83EC14   		call	_WriteProcessMemory@20
 764              		subl	$20, %esp
 765 0503 C70424F4 	L104:
 765      010000
 766 050a C745B801 		movl	$500, (%esp)
GAS LISTING C:\Users\Milos\AppData\Local\Temp\ccVYu8jf.s 			page 20


 766      000000
 767 0511 E8000000 		movl	$1, -72(%ebp)
 767      00
 768              		call	_Sleep@4
 769 0516 8B150000 	L112:
 769      0000
 770 051c 83EC04   		movl	__ZL7running, %edx
 771 051f 85D2     		subl	$4, %esp
 772 0521 0F8519FF 		testl	%edx, %edx
 772      FFFF
 773              		jne	L125
 774 0527 C70424CF 	L99:
 774      020000
 775 052e C6050000 		movl	$LC22, (%esp)
 775      000000
 776 0535 E8000000 		movb	$0, __ZL14thread_running
 776      00
 777 053a 8D4DF4   		call	_printf
 778 053d C745B801 		leal	-12(%ebp), %ecx
 778      000000
 779 0544 E8000000 		movl	$1, -72(%ebp)
 779      00
 780 0549 A10C0000 		call	__ZNSt6thread4joinEv
 780      00
 781 054e 890424   		movl	__ZL7pHandle, %eax
 782 0551 E8000000 		movl	%eax, (%esp)
 782      00
 783 0556 8D4DF4   		call	_CloseHandle@4
 784 0559 50       		leal	-12(%ebp), %ecx
 785 055a E8000000 		pushl	%eax
 785      00
 786              		call	__ZNSt6threadD1Ev
 787 055f 8D45B4   	L110:
 788 0562 890424   		leal	-76(%ebp), %eax
 789 0565 E8000000 		movl	%eax, (%esp)
 789      00
 790 056a 8B4DFC   		call	__Unwind_SjLj_Unregister
 791 056d 31C0     		movl	-4(%ebp), %ecx
 792 056f C9       		xorl	%eax, %eax
 793 0570 8D61FC   		leave
 794 0573 C3       		leal	-4(%ecx), %esp
 795              		ret
 796 0574 C7442404 	L88:
 796      1C000000 
 797 057c C70424FC 		movl	$__ZL8WIN_NAME, 4(%esp)
 797      000000
 798 0583 E8000000 		movl	$LC8, (%esp)
 798      00
 799 0588 C7042437 		call	_printf
 799      010000
 800 058f E8000000 		movl	$LC9, (%esp)
 800      00
 801 0594 C745B8FF 		call	_printf
 801      FFFFFF
 802 059b B9000000 		movl	$-1, -72(%ebp)
 802      00
 803 05a0 E8000000 		movl	$__ZSt3cin, %ecx
GAS LISTING C:\Users\Milos\AppData\Local\Temp\ccVYu8jf.s 			page 21


 803      00
 804 05a5 A1040000 		call	__ZNSi3getEv
 804      00
 805 05aa E95CFCFF 		movl	__ZL4init, %eax
 805      FF
 806              		jmp	L86
 807 05af C7442404 	L118:
 807      1C000000 
 808 05b7 C7042450 		movl	$__ZL8WIN_NAME, 4(%esp)
 808      010000
 809 05be E8000000 		movl	$LC10, (%esp)
 809      00
 810 05c3 EB9A     		call	_printf
 811              		jmp	L110
 812 05c5 C7442404 	L120:
 812      1C000000 
 813 05cd C7042417 		movl	$__ZL8WIN_NAME, 4(%esp)
 813      020000
 814 05d4 E8000000 		movl	$LC17, (%esp)
 814      00
 815 05d9 A10C0000 		call	_printf
 815      00
 816 05de 890424   		movl	__ZL7pHandle, %eax
 817 05e1 E8000000 		movl	%eax, (%esp)
 817      00
 818 05e6 51       		call	_CloseHandle@4
 819 05e7 E973FFFF 		pushl	%ecx
 819      FF
 820              		jmp	L110
 821 05ec DDD8     	L121:
 822 05ee C7042430 		fstp	%st(0)
 822      020000
 823 05f5 E8000000 		movl	$LC18, (%esp)
 823      00
 824 05fa A1040000 		call	_printf
 824      00
 825 05ff E9E1FDFF 		movl	__ZL4init, %eax
 825      FF
 826              		jmp	L93
 827 0604 C7442404 	L123:
 827      1C000000 
 828 060c C7042417 		movl	$__ZL8WIN_NAME, 4(%esp)
 828      020000
 829 0613 E8000000 		movl	$LC17, (%esp)
 829      00
 830 0618 C7050000 		call	_printf
 830      00000000 
 830      0000
 831 0622 E900FFFF 		movl	$0, __ZL7running
 831      FF
 832              		jmp	L99
 833 0627 C70424AC 	L124:
 833      020000
 834 062e E8000000 		movl	$LC21, (%esp)
 834      00
 835 0633 C7050000 		call	_printf
 835      00000000 
GAS LISTING C:\Users\Milos\AppData\Local\Temp\ccVYu8jf.s 			page 22


 835      0000
 836 063d E9E5FEFF 		movl	$0, __ZL7running
 836      FF
 837              		jmp	L99
 838 0642 C7442404 	L119:
 838      1C000000 
 839 064a C7042474 		movl	$__ZL8WIN_NAME, 4(%esp)
 839      010000
 840 0651 E8000000 		movl	$LC11, (%esp)
 840      00
 841 0656 E904FFFF 		call	_printf
 841      FF
 842              		jmp	L110
 843 065b 83C508   	L106:
 844 065e 8B45BC   		addl	$8, %ebp
 845 0661 8D4DF4   		movl	-68(%ebp), %eax
 846 0664 8945B0   		leal	-12(%ebp), %ecx
 847 0667 E8000000 		movl	%eax, -80(%ebp)
 847      00
 848 066c 8B45B0   		call	__ZNSt6threadD1Ev
 849 066f 890424   		movl	-80(%ebp), %eax
 850 0672 C745B8FF 		movl	%eax, (%esp)
 850      FFFFFF
 851 0679 E8000000 		movl	$-1, -72(%ebp)
 851      00
 852              		call	__Unwind_SjLj_Resume
 853              		.section	.gcc_except_table,"w"
 854 000a FF       	LLSDA2608:
 855 000b FF       		.byte	0xff
 856 000c 01       		.byte	0xff
 857 000d 02       		.byte	0x1
 858              		.uleb128 LLSDACSE2608-LLSDACSB2608
 859 000e 00       	LLSDACSB2608:
 860 000f 00       		.uleb128 0
 861              		.uleb128 0
 862              	LLSDACSE2608:
 863 067e 6690     		.section	.text.startup,"x"
 864              		.p2align 4,,15
 866 0680 83EC1C   	__GLOBAL__sub_I__Z9get_inputv:
 867 0683 B9300000 		subl	$28, %esp
 867      00
 868 0688 E8000000 		movl	$__ZStL8__ioinit, %ecx
 868      00
 869 068d C7042400 		call	__ZNSt8ios_base4InitC1Ev
 869      000000
 870 0694 E8000000 		movl	$___tcf_0, (%esp)
 870      00
 871 0699 83C41C   		call	_atexit
 872 069c C3       		addl	$28, %esp
 873 069d 909090   		ret
 874              		.section	.ctors,"w"
 875 0000 80060000 		.align 4
 876              		.long	__GLOBAL__sub_I__Z9get_inputv
 877              		.globl	__ZTSSt11_Mutex_baseILN9__gnu_cxx12_Lock_policyE2EE
 878              		.section	.rdata$_ZTSSt11_Mutex_baseILN9__gnu_cxx12_Lock_policyE2EE,"dr"
 879              		.linkonce same_size
 880              		.align 32
GAS LISTING C:\Users\Milos\AppData\Local\Temp\ccVYu8jf.s 			page 23


 881 0000 53743131 	__ZTSSt11_Mutex_baseILN9__gnu_cxx12_Lock_policyE2EE:
 881      5F4D7574 
 881      65785F62 
 881      61736549 
 881      4C4E395F 
 882              		.ascii "St11_Mutex_baseILN9__gnu_cxx12_Lock_policyE2EE\0"
 883 002f 00000000 		.globl	__ZTISt11_Mutex_baseILN9__gnu_cxx12_Lock_policyE2EE
 883      00000000 
 883      00000000 
 883      00000000 
 883      00
 884              		.section	.rdata$_ZTISt11_Mutex_baseILN9__gnu_cxx12_Lock_policyE2EE,"dr"
 885              		.linkonce same_size
 886              		.align 4
 887 0000 08000000 	__ZTISt11_Mutex_baseILN9__gnu_cxx12_Lock_policyE2EE:
 888 0004 00000000 		.long	__ZTVN10__cxxabiv117__class_type_infoE+8
 889              		.long	__ZTSSt11_Mutex_baseILN9__gnu_cxx12_Lock_policyE2EE
 890              		.globl	__ZTSSt16_Sp_counted_baseILN9__gnu_cxx12_Lock_policyE2EE
 891              		.section	.rdata$_ZTSSt16_Sp_counted_baseILN9__gnu_cxx12_Lock_policyE2EE,"dr"
 892              		.linkonce same_size
 893              		.align 32
 894 0000 53743136 	__ZTSSt16_Sp_counted_baseILN9__gnu_cxx12_Lock_policyE2EE:
 894      5F53705F 
 894      636F756E 
 894      7465645F 
 894      62617365 
 895              		.ascii "St16_Sp_counted_baseILN9__gnu_cxx12_Lock_policyE2EE\0"
 896 0034 00000000 		.globl	__ZTISt16_Sp_counted_baseILN9__gnu_cxx12_Lock_policyE2EE
 896      00000000 
 896      00000000 
 897              		.section	.rdata$_ZTISt16_Sp_counted_baseILN9__gnu_cxx12_Lock_policyE2EE,"dr"
 898              		.linkonce same_size
 899              		.align 4
 900 0000 08000000 	__ZTISt16_Sp_counted_baseILN9__gnu_cxx12_Lock_policyE2EE:
 901 0004 00000000 		.long	__ZTVN10__cxxabiv120__si_class_type_infoE+8
 902 0008 00000000 		.long	__ZTSSt16_Sp_counted_baseILN9__gnu_cxx12_Lock_policyE2EE
 903              		.long	__ZTISt11_Mutex_baseILN9__gnu_cxx12_Lock_policyE2EE
 904              		.globl	__ZTSNSt6thread10_Impl_baseE
 905              		.section	.rdata$_ZTSNSt6thread10_Impl_baseE,"dr"
 906              		.linkonce same_size
 907              		.align 4
 908 0000 4E537436 	__ZTSNSt6thread10_Impl_baseE:
 908      74687265 
 908      61643130 
 908      5F496D70 
 908      6C5F6261 
 909              		.ascii "NSt6thread10_Impl_baseE\0"
 910              		.globl	__ZTINSt6thread10_Impl_baseE
 911              		.section	.rdata$_ZTINSt6thread10_Impl_baseE,"dr"
 912              		.linkonce same_size
 913              		.align 4
 914 0000 08000000 	__ZTINSt6thread10_Impl_baseE:
 915 0004 00000000 		.long	__ZTVN10__cxxabiv117__class_type_infoE+8
 916              		.long	__ZTSNSt6thread10_Impl_baseE
 917              		.globl	__ZTSNSt6thread5_ImplISt12_Bind_simpleIFPFvvEvEEEE
 918              		.section	.rdata$_ZTSNSt6thread5_ImplISt12_Bind_simpleIFPFvvEvEEEE,"dr"
 919              		.linkonce same_size
GAS LISTING C:\Users\Milos\AppData\Local\Temp\ccVYu8jf.s 			page 24


 920              		.align 32
 921 0000 4E537436 	__ZTSNSt6thread5_ImplISt12_Bind_simpleIFPFvvEvEEEE:
 921      74687265 
 921      6164355F 
 921      496D706C 
 921      49537431 
 922              		.ascii "NSt6thread5_ImplISt12_Bind_simpleIFPFvvEvEEEE\0"
 923 002e 00000000 		.globl	__ZTINSt6thread5_ImplISt12_Bind_simpleIFPFvvEvEEEE
 923      00000000 
 923      00000000 
 923      00000000 
 923      0000
 924              		.section	.rdata$_ZTINSt6thread5_ImplISt12_Bind_simpleIFPFvvEvEEEE,"dr"
 925              		.linkonce same_size
 926              		.align 4
 927 0000 08000000 	__ZTINSt6thread5_ImplISt12_Bind_simpleIFPFvvEvEEEE:
 928 0004 00000000 		.long	__ZTVN10__cxxabiv120__si_class_type_infoE+8
 929 0008 00000000 		.long	__ZTSNSt6thread5_ImplISt12_Bind_simpleIFPFvvEvEEEE
 930              		.long	__ZTINSt6thread10_Impl_baseE
 931              		.globl	__ZTSSt19_Sp_make_shared_tag
 932              		.section	.rdata$_ZTSSt19_Sp_make_shared_tag,"dr"
 933              		.linkonce same_size
 934              		.align 4
 935 0000 53743139 	__ZTSSt19_Sp_make_shared_tag:
 935      5F53705F 
 935      6D616B65 
 935      5F736861 
 935      7265645F 
 936              		.ascii "St19_Sp_make_shared_tag\0"
 937              		.globl	__ZTISt19_Sp_make_shared_tag
 938              		.section	.rdata$_ZTISt19_Sp_make_shared_tag,"dr"
 939              		.linkonce same_size
 940              		.align 4
 941 0000 08000000 	__ZTISt19_Sp_make_shared_tag:
 942 0004 00000000 		.long	__ZTVN10__cxxabiv117__class_type_infoE+8
 943              		.long	__ZTSSt19_Sp_make_shared_tag
 944              		.globl	__ZTSSt23_Sp_counted_ptr_inplaceINSt6thread5_ImplISt12_Bind_simpleIFPFvvEvEEEESaIS7_ELN9__g
 945              		.section	.rdata$_ZTSSt23_Sp_counted_ptr_inplaceINSt6thread5_ImplISt12_Bind_simpleIFPFvvEvEEEESaIS7
 946              		.linkonce same_size
 947              		.align 32
 948 0000 53743233 	__ZTSSt23_Sp_counted_ptr_inplaceINSt6thread5_ImplISt12_Bind_simpleIFPFvvEvEEEESaIS7_ELN9__gnu_cxx12
 948      5F53705F 
 948      636F756E 
 948      7465645F 
 948      7074725F 
 949              		.ascii "St23_Sp_counted_ptr_inplaceINSt6thread5_ImplISt12_Bind_simpleIFPFvvEvEEEESaIS7_ELN9__gnu_c
 950 006f 00000000 		.globl	__ZTISt23_Sp_counted_ptr_inplaceINSt6thread5_ImplISt12_Bind_simpleIFPFvvEvEEEESaIS7_ELN9__g
 950      00000000 
 950      00000000 
 950      00000000 
 950      00
 951              		.section	.rdata$_ZTISt23_Sp_counted_ptr_inplaceINSt6thread5_ImplISt12_Bind_simpleIFPFvvEvEEEESaIS7
 952              		.linkonce same_size
 953              		.align 4
 954 0000 08000000 	__ZTISt23_Sp_counted_ptr_inplaceINSt6thread5_ImplISt12_Bind_simpleIFPFvvEvEEEESaIS7_ELN9__gnu_cxx12
 955 0004 00000000 		.long	__ZTVN10__cxxabiv120__si_class_type_infoE+8
 956 0008 00000000 		.long	__ZTSSt23_Sp_counted_ptr_inplaceINSt6thread5_ImplISt12_Bind_simpleIFPFvvEvEEEESaIS7_ELN9__gn
GAS LISTING C:\Users\Milos\AppData\Local\Temp\ccVYu8jf.s 			page 25


 957              		.long	__ZTISt16_Sp_counted_baseILN9__gnu_cxx12_Lock_policyE2EE
 958              		.globl	__ZTVNSt6thread10_Impl_baseE
 959              		.section	.rdata$_ZTVNSt6thread10_Impl_baseE,"dr"
 960              		.linkonce same_size
 961              		.align 4
 962 0000 00000000 	__ZTVNSt6thread10_Impl_baseE:
 963 0004 00000000 		.long	0
 964 0008 00000000 		.long	__ZTINSt6thread10_Impl_baseE
 965 000c 00000000 		.long	0
 966 0010 00000000 		.long	0
 967              		.long	___cxa_pure_virtual
 968              		.globl	__ZTVNSt6thread5_ImplISt12_Bind_simpleIFPFvvEvEEEE
 969              		.section	.rdata$_ZTVNSt6thread5_ImplISt12_Bind_simpleIFPFvvEvEEEE,"dr"
 970              		.linkonce same_size
 971              		.align 4
 972 0000 00000000 	__ZTVNSt6thread5_ImplISt12_Bind_simpleIFPFvvEvEEEE:
 973 0004 00000000 		.long	0
 974 0008 00000000 		.long	__ZTINSt6thread5_ImplISt12_Bind_simpleIFPFvvEvEEEE
 975 000c 00000000 		.long	__ZNSt6thread5_ImplISt12_Bind_simpleIFPFvvEvEEED1Ev
 976 0010 00000000 		.long	__ZNSt6thread5_ImplISt12_Bind_simpleIFPFvvEvEEED0Ev
 977              		.long	__ZNSt6thread5_ImplISt12_Bind_simpleIFPFvvEvEEE6_M_runEv
 978              		.globl	__ZTVSt23_Sp_counted_ptr_inplaceINSt6thread5_ImplISt12_Bind_simpleIFPFvvEvEEEESaIS7_ELN9__g
 979              		.section	.rdata$_ZTVSt23_Sp_counted_ptr_inplaceINSt6thread5_ImplISt12_Bind_simpleIFPFvvEvEEEESaIS7
 980              		.linkonce same_size
 981              		.align 4
 982 0000 00000000 	__ZTVSt23_Sp_counted_ptr_inplaceINSt6thread5_ImplISt12_Bind_simpleIFPFvvEvEEEESaIS7_ELN9__gnu_cxx12
 983 0004 00000000 		.long	0
 984 0008 00000000 		.long	__ZTISt23_Sp_counted_ptr_inplaceINSt6thread5_ImplISt12_Bind_simpleIFPFvvEvEEEESaIS7_ELN9__gn
 985 000c 00000000 		.long	__ZNSt23_Sp_counted_ptr_inplaceINSt6thread5_ImplISt12_Bind_simpleIFPFvvEvEEEESaIS7_ELN9__gnu
 986 0010 00000000 		.long	__ZNSt23_Sp_counted_ptr_inplaceINSt6thread5_ImplISt12_Bind_simpleIFPFvvEvEEEESaIS7_ELN9__gnu
 987 0014 00000000 		.long	__ZNSt23_Sp_counted_ptr_inplaceINSt6thread5_ImplISt12_Bind_simpleIFPFvvEvEEEESaIS7_ELN9__gnu
 988 0018 00000000 		.long	__ZNSt23_Sp_counted_ptr_inplaceINSt6thread5_ImplISt12_Bind_simpleIFPFvvEvEEEESaIS7_ELN9__gnu
 989              		.long	__ZNSt23_Sp_counted_ptr_inplaceINSt6thread5_ImplISt12_Bind_simpleIFPFvvEvEEEESaIS7_ELN9__gnu
 990              		.data
 991 0000 01       	__ZL14thread_running:
 992              		.byte	1
 993 0001 000000   	.lcomm __ZL7running,4,4
 994              		.align 4
 995 0004 0000803F 	__ZL5speed:
 996              		.long	1065353216
 997              	.lcomm __ZL4init,4,4
 998              	.lcomm __ZL8exitCode,4,4
 999              	.lcomm __ZL7pHandle,4,4
 1000              	.lcomm __ZL3pid,4,4
 1001              	.lcomm __ZL4hwnd,4,4
 1002              	.lcomm __ZL7ADDRESS,4,4
 1003              	.lcomm __ZL8WIN_NAME,20,4
 1004              	.lcomm __ZStL8__ioinit,1,1
 1005              		.ident	"GCC: (tdm-1) 5.1.0"
GAS LISTING C:\Users\Milos\AppData\Local\Temp\ccVYu8jf.s 			page 26


DEFINED SYMBOLS
                            *ABS*:00000000 main.cpp
C:\Users\Milos\AppData\Local\Temp\ccVYu8jf.s:8      .text$_ZNSt23_Sp_counted_ptr_inplaceINSt6thread5_ImplISt12_Bind_simpleIFPFvvEvEEEESaIS7_ELN9__gnu_cxx12_Lock_policyE2EED1Ev:00000000 __ZNSt23_Sp_counted_ptr_inplaceINSt6thread5_ImplISt12_Bind_simpleIFPFvvEvEEEESaIS7_ELN9__gnu_cxx12_Lock_policyE2EED1Ev
C:\Users\Milos\AppData\Local\Temp\ccVYu8jf.s:16     .text$_ZNSt23_Sp_counted_ptr_inplaceINSt6thread5_ImplISt12_Bind_simpleIFPFvvEvEEEESaIS7_ELN9__gnu_cxx12_Lock_policyE2EE10_M_disposeEv:00000000 __ZNSt23_Sp_counted_ptr_inplaceINSt6thread5_ImplISt12_Bind_simpleIFPFvvEvEEEESaIS7_ELN9__gnu_cxx12_Lock_policyE2EE10_M_disposeEv
C:\Users\Milos\AppData\Local\Temp\ccVYu8jf.s:27     .text$_ZNSt6thread5_ImplISt12_Bind_simpleIFPFvvEvEEE6_M_runEv:00000000 __ZNSt6thread5_ImplISt12_Bind_simpleIFPFvvEvEEE6_M_runEv
C:\Users\Milos\AppData\Local\Temp\ccVYu8jf.s:35     .text$_ZNSt23_Sp_counted_ptr_inplaceINSt6thread5_ImplISt12_Bind_simpleIFPFvvEvEEEESaIS7_ELN9__gnu_cxx12_Lock_policyE2EE14_M_get_deleterERKSt9type_info:00000000 __ZNSt23_Sp_counted_ptr_inplaceINSt6thread5_ImplISt12_Bind_simpleIFPFvvEvEEEESaIS7_ELN9__gnu_cxx12_Lock_policyE2EE14_M_get_deleterERKSt9type_info
C:\Users\Milos\AppData\Local\Temp\ccVYu8jf.s:940    .rdata$_ZTISt19_Sp_make_shared_tag:00000000 __ZTISt19_Sp_make_shared_tag
C:\Users\Milos\AppData\Local\Temp\ccVYu8jf.s:56     .text$_ZNSt23_Sp_counted_ptr_inplaceINSt6thread5_ImplISt12_Bind_simpleIFPFvvEvEEEESaIS7_ELN9__gnu_cxx12_Lock_policyE2EED0Ev:00000000 __ZNSt23_Sp_counted_ptr_inplaceINSt6thread5_ImplISt12_Bind_simpleIFPFvvEvEEEESaIS7_ELN9__gnu_cxx12_Lock_policyE2EED0Ev
C:\Users\Milos\AppData\Local\Temp\ccVYu8jf.s:68     .text$_ZNSt23_Sp_counted_ptr_inplaceINSt6thread5_ImplISt12_Bind_simpleIFPFvvEvEEEESaIS7_ELN9__gnu_cxx12_Lock_policyE2EE10_M_destroyEv:00000000 __ZNSt23_Sp_counted_ptr_inplaceINSt6thread5_ImplISt12_Bind_simpleIFPFvvEvEEEESaIS7_ELN9__gnu_cxx12_Lock_policyE2EE10_M_destroyEv
C:\Users\Milos\AppData\Local\Temp\ccVYu8jf.s:77     .text:00000000 ___tcf_0
C:\Users\Milos\AppData\Local\Temp\ccVYu8jf.s:1002   .bss:00000030 __ZStL8__ioinit
C:\Users\Milos\AppData\Local\Temp\ccVYu8jf.s:86     .text$_ZNSt16_Sp_counted_baseILN9__gnu_cxx12_Lock_policyE2EE10_M_destroyEv:00000000 __ZNSt16_Sp_counted_baseILN9__gnu_cxx12_Lock_policyE2EE10_M_destroyEv
C:\Users\Milos\AppData\Local\Temp\ccVYu8jf.s:108    .text$_ZNSt6thread5_ImplISt12_Bind_simpleIFPFvvEvEEED1Ev:00000000 __ZNSt6thread5_ImplISt12_Bind_simpleIFPFvvEvEEED1Ev
C:\Users\Milos\AppData\Local\Temp\ccVYu8jf.s:961    .rdata$_ZTVNSt6thread10_Impl_baseE:00000000 __ZTVNSt6thread10_Impl_baseE
C:\Users\Milos\AppData\Local\Temp\ccVYu8jf.s:140    .text$_ZNSt6thread5_ImplISt12_Bind_simpleIFPFvvEvEEED0Ev:00000000 __ZNSt6thread5_ImplISt12_Bind_simpleIFPFvvEvEEED0Ev
C:\Users\Milos\AppData\Local\Temp\ccVYu8jf.s:174    .text$printf:00000000 _printf
C:\Users\Milos\AppData\Local\Temp\ccVYu8jf.s:194    .text:00000010 __Z9get_inputv
C:\Users\Milos\AppData\Local\Temp\ccVYu8jf.s:994    .data:00000004 __ZL5speed
C:\Users\Milos\AppData\Local\Temp\ccVYu8jf.s:990    .data:00000000 __ZL14thread_running
C:\Users\Milos\AppData\Local\Temp\ccVYu8jf.s:252    .text$_ZNSt6threadD1Ev:00000000 __ZNSt6threadD1Ev
C:\Users\Milos\AppData\Local\Temp\ccVYu8jf.s:293    .text$_ZNSt16_Sp_counted_baseILN9__gnu_cxx12_Lock_policyE2EE10_M_releaseEv:00000000 __ZNSt16_Sp_counted_baseILN9__gnu_cxx12_Lock_policyE2EE10_M_releaseEv
C:\Users\Milos\AppData\Local\Temp\ccVYu8jf.s:323    .text$_ZNSt6threadC1IRFvvEJEEEOT_DpOT0_:00000000 __ZNSt6threadC1IRFvvEJEEEOT_DpOT0_
C:\Users\Milos\AppData\Local\Temp\ccVYu8jf.s:981    .rdata$_ZTVSt23_Sp_counted_ptr_inplaceINSt6thread5_ImplISt12_Bind_simpleIFPFvvEvEEEESaIS7_ELN9__gnu_cxx12_Lock_policyE2EE:00000000 __ZTVSt23_Sp_counted_ptr_inplaceINSt6thread5_ImplISt12_Bind_simpleIFPFvvEvEEEESaIS7_ELN9__gnu_cxx12_Lock_policyE2EE
C:\Users\Milos\AppData\Local\Temp\ccVYu8jf.s:971    .rdata$_ZTVNSt6thread5_ImplISt12_Bind_simpleIFPFvvEvEEEE:00000000 __ZTVNSt6thread5_ImplISt12_Bind_simpleIFPFvvEvEEEE
C:\Users\Milos\AppData\Local\Temp\ccVYu8jf.s:323    .text$_ZNSt6threadC1IRFvvEJEEEOT_DpOT0_:00000000 .weak.__ZNSt6threadC1IRFvvEIEEEOT_DpOT0_.__ZNSt23_Sp_counted_ptr_inplaceINSt6thread5_ImplISt12_Bind_simpleIFPFvvEvEEEESaIS7_ELN9__gnu_cxx12_Lock_policyE2EED1Ev
C:\Users\Milos\AppData\Local\Temp\ccVYu8jf.s:473    .text.startup:00000000 _main
C:\Users\Milos\AppData\Local\Temp\ccVYu8jf.s:996    .bss:00000004 __ZL4init
C:\Users\Milos\AppData\Local\Temp\ccVYu8jf.s:1002   .bss:0000001c __ZL8WIN_NAME
C:\Users\Milos\AppData\Local\Temp\ccVYu8jf.s:1001   .bss:00000018 __ZL7ADDRESS
C:\Users\Milos\AppData\Local\Temp\ccVYu8jf.s:1000   .bss:00000014 __ZL4hwnd
C:\Users\Milos\AppData\Local\Temp\ccVYu8jf.s:999    .bss:00000010 __ZL3pid
C:\Users\Milos\AppData\Local\Temp\ccVYu8jf.s:998    .bss:0000000c __ZL7pHandle
C:\Users\Milos\AppData\Local\Temp\ccVYu8jf.s:997    .bss:00000008 __ZL8exitCode
C:\Users\Milos\AppData\Local\Temp\ccVYu8jf.s:992    .bss:00000000 __ZL7running
C:\Users\Milos\AppData\Local\Temp\ccVYu8jf.s:865    .text.startup:00000680 __GLOBAL__sub_I__Z9get_inputv
C:\Users\Milos\AppData\Local\Temp\ccVYu8jf.s:880    .rdata$_ZTSSt11_Mutex_baseILN9__gnu_cxx12_Lock_policyE2EE:00000000 __ZTSSt11_Mutex_baseILN9__gnu_cxx12_Lock_policyE2EE
C:\Users\Milos\AppData\Local\Temp\ccVYu8jf.s:886    .rdata$_ZTISt11_Mutex_baseILN9__gnu_cxx12_Lock_policyE2EE:00000000 __ZTISt11_Mutex_baseILN9__gnu_cxx12_Lock_policyE2EE
C:\Users\Milos\AppData\Local\Temp\ccVYu8jf.s:893    .rdata$_ZTSSt16_Sp_counted_baseILN9__gnu_cxx12_Lock_policyE2EE:00000000 __ZTSSt16_Sp_counted_baseILN9__gnu_cxx12_Lock_policyE2EE
C:\Users\Milos\AppData\Local\Temp\ccVYu8jf.s:899    .rdata$_ZTISt16_Sp_counted_baseILN9__gnu_cxx12_Lock_policyE2EE:00000000 __ZTISt16_Sp_counted_baseILN9__gnu_cxx12_Lock_policyE2EE
C:\Users\Milos\AppData\Local\Temp\ccVYu8jf.s:907    .rdata$_ZTSNSt6thread10_Impl_baseE:00000000 __ZTSNSt6thread10_Impl_baseE
C:\Users\Milos\AppData\Local\Temp\ccVYu8jf.s:913    .rdata$_ZTINSt6thread10_Impl_baseE:00000000 __ZTINSt6thread10_Impl_baseE
C:\Users\Milos\AppData\Local\Temp\ccVYu8jf.s:920    .rdata$_ZTSNSt6thread5_ImplISt12_Bind_simpleIFPFvvEvEEEE:00000000 __ZTSNSt6thread5_ImplISt12_Bind_simpleIFPFvvEvEEEE
C:\Users\Milos\AppData\Local\Temp\ccVYu8jf.s:926    .rdata$_ZTINSt6thread5_ImplISt12_Bind_simpleIFPFvvEvEEEE:00000000 __ZTINSt6thread5_ImplISt12_Bind_simpleIFPFvvEvEEEE
C:\Users\Milos\AppData\Local\Temp\ccVYu8jf.s:934    .rdata$_ZTSSt19_Sp_make_shared_tag:00000000 __ZTSSt19_Sp_make_shared_tag
C:\Users\Milos\AppData\Local\Temp\ccVYu8jf.s:947    .rdata$_ZTSSt23_Sp_counted_ptr_inplaceINSt6thread5_ImplISt12_Bind_simpleIFPFvvEvEEEESaIS7_ELN9__gnu_cxx12_Lock_policyE2EE:00000000 __ZTSSt23_Sp_counted_ptr_inplaceINSt6thread5_ImplISt12_Bind_simpleIFPFvvEvEEEESaIS7_ELN9__gnu_cxx12_Lock_policyE2EE
C:\Users\Milos\AppData\Local\Temp\ccVYu8jf.s:953    .rdata$_ZTISt23_Sp_counted_ptr_inplaceINSt6thread5_ImplISt12_Bind_simpleIFPFvvEvEEEESaIS7_ELN9__gnu_cxx12_Lock_policyE2EE:00000000 __ZTISt23_Sp_counted_ptr_inplaceINSt6thread5_ImplISt12_Bind_simpleIFPFvvEvEEEESaIS7_ELN9__gnu_cxx12_Lock_policyE2EE

UNDEFINED SYMBOLS
__imp___iob
___gxx_personality_sj0
__Unwind_SjLj_Register
__Unwind_SjLj_Unregister
__ZNSt6threadC1IRFvvEIEEEOT_DpOT0_
___main
__ZSt4cout
__ZSt3cin
__ZTVN10__cxxabiv117__class_type_infoE
GAS LISTING C:\Users\Milos\AppData\Local\Temp\ccVYu8jf.s 			page 27


__ZTVN10__cxxabiv120__si_class_type_infoE
__ZNKSt9type_infoeqERKS_
__ZdlPv
__ZNSt8ios_base4InitD1Ev
___mingw_vprintf
_fflush
_fgets
_strtof
_pthread_equal
__ZSt9terminatev
__Znwj
__ZNSt6thread15_M_start_threadESt10shared_ptrINS_10_Impl_baseEE
__Unwind_SjLj_Resume
__filbuf
_FindWindowA@8
_GetWindowThreadProcessId@8
_OpenProcess@12
__ZSt16__ostream_insertIcSt11char_traitsIcEERSt13basic_ostreamIT_T0_ES6_PKS3_i
__ZNSo9_M_insertIPKvEERSoT_
__ZSt4endlIcSt11char_traitsIcEERSt13basic_ostreamIT_T0_ES6_
__ZNSo9_M_insertImEERSoT_
_GetExitCodeProcess@8
_GetLastError@0
_ReadProcessMemory@20
_WriteProcessMemory@20
_Sleep@4
__ZNSt6thread4joinEv
_CloseHandle@4
__ZNSi3getEv
__ZNSt8ios_base4InitC1Ev
_atexit
___cxa_pure_virtual
